target datalayout = "e-m:e-p270:32:32-p271:32:32-p272:64:64-i64:64-i128:128-f80:128-n8:16:32:64-S128"
target triple = "x86_64-pc-linux-gnu"

; Function Attrs: nounwind sspstrong uwtable
define internal ptr @vm_argv_ruby_array(ptr noundef %0, ptr noundef %1, ptr noundef %2, ptr noundef %3, i32 noundef %4) #0 {
  %6 = alloca ptr, align 8
  %7 = alloca ptr, align 8
  %8 = alloca ptr, align 8
  %9 = alloca ptr, align 8
  %10 = alloca i32, align 4
  %11 = alloca i64, align 8
  store ptr %0, ptr %6, align 8, !tbaa !7
  store ptr %1, ptr %7, align 8, !tbaa !7
  store ptr %2, ptr %8, align 8, !tbaa !146
  store ptr %3, ptr %9, align 8, !tbaa !146
  store i32 %4, ptr %10, align 4, !tbaa !24
  %12 = load ptr, ptr %8, align 8, !tbaa !146
  %13 = load i32, ptr %12, align 4, !tbaa !24
  %14 = or i32 %13, 1
  store i32 %14, ptr %12, align 4, !tbaa !24
  call void @llvm.lifetime.start.p0(i64 8, ptr %11) #21
  %15 = load ptr, ptr %9, align 8, !tbaa !146
  %16 = load i32, ptr %15, align 4, !tbaa !24
  %17 = sext i32 %16 to i64
  %18 = call i64 @rb_ary_hidden_new(i64 noundef %17)
  store i64 %18, ptr %11, align 8, !tbaa !31
  %19 = load i64, ptr %11, align 8, !tbaa !31
  %20 = load ptr, ptr %7, align 8, !tbaa !7
  %21 = load ptr, ptr %9, align 8, !tbaa !146
  %22 = load i32, ptr %21, align 4, !tbaa !24
  %23 = sext i32 %22 to i64
  %24 = call i64 @rb_ary_cat(i64 noundef %19, ptr noundef %20, i64 noundef %23)
  %25 = load ptr, ptr %9, align 8, !tbaa !146
  store i32 2, ptr %25, align 4, !tbaa !24
  %26 = load i64, ptr %11, align 8, !tbaa !31
  %27 = load ptr, ptr %6, align 8, !tbaa !7
  %28 = getelementptr i64, ptr %27, i64 0
  store i64 %26, ptr %28, align 8, !tbaa !31
  %29 = load i32, ptr %10, align 4, !tbaa !24
  %30 = icmp ne i32 %29, 0
  br i1 %30, label %31, label %36

31:                                               ; preds = %5
  %32 = load i64, ptr %11, align 8, !tbaa !31
  %33 = call i64 @rb_ary_pop(i64 noundef %32)
  %34 = load ptr, ptr %6, align 8, !tbaa !7
  %35 = getelementptr i64, ptr %34, i64 1
  store i64 %33, ptr %35, align 8, !tbaa !31
  br label %43

36:                                               ; preds = %5
  %37 = load ptr, ptr %8, align 8, !tbaa !146
  %38 = load i32, ptr %37, align 4, !tbaa !24
  %39 = or i32 %38, 64
  store i32 %39, ptr %37, align 4, !tbaa !24
  %40 = call i64 @rb_hash_new()
  %41 = load ptr, ptr %6, align 8, !tbaa !7
  %42 = getelementptr i64, ptr %41, i64 1
  store i64 %40, ptr %42, align 8, !tbaa !31
  br label %43

43:                                               ; preds = %36, %31
  %44 = load ptr, ptr %6, align 8, !tbaa !7
  call void @llvm.lifetime.end.p0(i64 8, ptr %11) #21
  ret ptr %44
}