; Function Attrs: nounwind sspstrong uwtable
define internal fastcc noundef nonnull ptr @vm_argv_ruby_array(ptr noundef nonnull returned writeonly captures(ret: address, provenance) initializes((0, 16)) %0, ptr noundef %1, ptr noundef nonnull captures(none) %2, ptr noundef nonnull captures(none) %3, i32 noundef %4) unnamed_addr #2 {
  %6 = load i32, ptr %2, align 4, !tbaa !139
  %7 = or i32 %6, 1
  store i32 %7, ptr %2, align 4, !tbaa !139
  %8 = load i32, ptr %3, align 4, !tbaa !139
  %9 = sext i32 %8 to i64
  %10 = tail call i64 @rb_ary_hidden_new(i64 noundef %9) #21
  %11 = load i32, ptr %3, align 4, !tbaa !139
  %12 = sext i32 %11 to i64
  %13 = tail call i64 @rb_ary_cat(i64 noundef %10, ptr noundef %1, i64 noundef %12) #21
  store i32 2, ptr %3, align 4, !tbaa !139
  store i64 %10, ptr %0, align 8, !tbaa !7
  %.not = icmp eq i32 %4, 0
  br i1 %.not, label %16, label %14

14:                                               ; preds = %5
  %15 = tail call i64 @rb_ary_pop(i64 noundef %10) #21
  br label %20

16:                                               ; preds = %5
  %17 = load i32, ptr %2, align 4, !tbaa !139
  %18 = or i32 %17, 64
  store i32 %18, ptr %2, align 4, !tbaa !139
  %19 = tail call i64 @rb_hash_new() #21
  br label %20

20:                                               ; preds = %16, %14
  %.sink = phi i64 [ %19, %16 ], [ %15, %14 ]
  %21 = getelementptr i8, ptr %0, i64 8
  store i64 %.sink, ptr %21, align 8, !tbaa !7
  ret ptr %0
}